Certificate:
    Data:
        Version: 3 (0x2)
        Serial Number: 1 (0x1)
        Signature Algorithm: sha256WithRSAEncryption
        Issuer: C = US, O = InterGenOS, CN = InterGenOS Secure Boot CA (TEST ONLY - NOT FOR PRODUCTION)
        Validity
            Not Before: Apr 29 18:01:22 2026 GMT
            Not After : Apr 26 18:01:22 2036 GMT
        Subject: C = US, O = InterGenOS, CN = InterGenOS Secure Boot CA (TEST ONLY - NOT FOR PRODUCTION)
        Subject Public Key Info:
            Public Key Algorithm: rsaEncryption
                Public-Key: (2048 bit)
                Modulus:
                    00:c0:4c:cc:54:27:d5:f5:36:90:bc:0d:98:8f:e9:
                    07:9e:fc:65:51:39:b6:4f:84:1d:04:0e:68:b0:9a:
                    ab:36:51:db:04:cb:c0:23:65:a2:4c:e5:52:bc:08:
                    4f:d3:02:1d:90:28:ef:df:e1:b9:99:04:52:61:a8:
                    11:1d:d3:37:29:49:b6:d9:12:f6:58:84:19:41:79:
                    fd:b1:59:9f:02:fb:86:83:d0:18:2e:5c:83:96:5f:
                    e0:b8:a2:da:c2:5a:71:6d:14:c1:f5:40:1b:5b:da:
                    eb:4d:70:b4:2b:3d:eb:b6:d4:01:69:84:4d:54:2c:
                    3c:c0:89:4f:66:27:d4:3d:b2:13:8f:bd:40:66:e7:
                    a1:3d:bf:19:4c:e7:8d:66:c2:12:f9:8e:c7:99:dd:
                    6d:c4:30:83:d8:8d:b1:60:db:f0:34:5d:24:b9:b2:
                    b5:cd:ac:54:86:fb:a9:0f:be:43:38:38:f1:39:3e:
                    b0:8a:3d:89:fc:a7:f9:12:31:55:a0:e7:71:9f:a9:
                    71:fc:6f:73:57:fd:d3:89:e9:71:d7:22:1f:98:a5:
                    23:44:74:7f:f9:89:5c:ed:85:6d:a1:14:4d:a2:65:
                    75:35:86:d3:16:74:0c:28:a0:8d:ef:7e:26:76:6d:
                    37:55:18:42:66:2d:c1:6f:31:75:2c:b2:63:a5:1a:
                    eb:4f
                Exponent: 65537 (0x10001)
        X509v3 extensions:
            X509v3 Subject Key Identifier: 
                90:BF:6C:93:A7:00:2E:61:97:B0:60:C0:84:53:1B:75:AF:E5:A0:89
            X509v3 Authority Key Identifier: 
                90:BF:6C:93:A7:00:2E:61:97:B0:60:C0:84:53:1B:75:AF:E5:A0:89
            X509v3 Basic Constraints: critical
                CA:TRUE
    Signature Algorithm: sha256WithRSAEncryption
    Signature Value:
        1d:7a:79:9f:78:5a:bf:3e:48:cc:37:7f:35:b3:8b:89:3e:37:
        35:e5:eb:17:58:45:37:6d:5c:c5:44:51:43:33:10:13:7e:95:
        c3:b3:b6:e7:75:2a:c9:01:eb:76:f2:84:26:f7:a0:2e:d9:dc:
        82:84:78:93:23:6b:79:74:9b:77:bd:80:db:59:d3:bc:14:8f:
        90:75:04:79:a4:6f:7a:81:d5:e6:4f:93:36:04:09:1f:af:e4:
        97:71:f5:b1:c3:3c:c5:59:fd:42:31:33:37:6e:2a:41:66:28:
        ec:30:6f:c9:65:9e:f0:26:9b:0a:4e:ff:c7:1c:1d:26:e4:a6:
        c5:7f:af:3a:9b:1b:39:15:05:44:f8:36:cd:8f:51:5e:75:17:
        e5:5b:c8:2b:74:7c:07:2b:5a:71:99:df:43:7f:62:34:90:ae:
        73:7e:5d:07:37:00:34:f1:2a:39:c0:5c:e5:15:06:ee:83:c0:
        ad:10:a2:d4:e3:a7:c0:af:e2:ae:32:4f:89:80:84:1b:84:93:
        89:37:d0:e6:9f:d1:ec:08:90:db:21:19:48:6e:7b:9c:36:aa:
        81:22:8a:4d:6a:2c:c3:bf:83:0c:14:fc:df:82:ba:48:3f:41:
        ca:11:7a:22:80:89:4a:f8:2f:a2:c1:2b:e2:d5:0d:41:87:b0:
        25:fa:8b:5f
-----BEGIN CERTIFICATE-----
MIIDnDCCAoSgAwIBAgIBATANBgkqhkiG9w0BAQsFADBnMQswCQYDVQQGEwJVUzET
MBEGA1UECgwKSW50ZXJHZW5PUzFDMEEGA1UEAww6SW50ZXJHZW5PUyBTZWN1cmUg
Qm9vdCBDQSAoVEVTVCBPTkxZIC0gTk9UIEZPUiBQUk9EVUNUSU9OKTAeFw0yNjA0
MjkxODAxMjJaFw0zNjA0MjYxODAxMjJaMGcxCzAJBgNVBAYTAlVTMRMwEQYDVQQK
DApJbnRlckdlbk9TMUMwQQYDVQQDDDpJbnRlckdlbk9TIFNlY3VyZSBCb290IENB
IChURVNUIE9OTFkgLSBOT1QgRk9SIFBST0RVQ1RJT04pMIIBIjANBgkqhkiG9w0B
AQEFAAOCAQ8AMIIBCgKCAQEAwEzMVCfV9TaQvA2Yj+kHnvxlUTm2T4QdBA5osJqr
NlHbBMvAI2WiTOVSvAhP0wIdkCjv3+G5mQRSYagRHdM3KUm22RL2WIQZQXn9sVmf
AvuGg9AYLlyDll/guKLawlpxbRTB9UAbW9rrTXC0Kz3rttQBaYRNVCw8wIlPZifU
PbITj71AZuehPb8ZTOeNZsIS+Y7Hmd1txDCD2I2xYNvwNF0kubK1zaxUhvupD75D
ODjxOT6wij2J/Kf5EjFVoOdxn6lx/G9zV/3Tielx1yIfmKUjRHR/+Ylc7YVtoRRN
omV1NYbTFnQMKKCN734mdm03VRhCZi3BbzF1LLJjpRrrTwIDAQABo1MwUTAdBgNV
HQ4EFgQUkL9sk6cALmGXsGDAhFMbda/loIkwHwYDVR0jBBgwFoAUkL9sk6cALmGX
sGDAhFMbda/loIkwDwYDVR0TAQH/BAUwAwEB/zANBgkqhkiG9w0BAQsFAAOCAQEA
HXp5n3havz5IzDd/NbOLiT43NeXrF1hFN21cxURRQzMQE36Vw7O253UqyQHrdvKE
JvegLtncgoR4kyNreXSbd72A21nTvBSPkHUEeaRveoHV5k+TNgQJH6/kl3H1scM8
xVn9QjEzN24qQWYo7DBvyWWe8CabCk7/xxwdJuSmxX+vOpsbORUFRPg2zY9RXnUX
5VvIK3R8BytacZnfQ39iNJCuc35dBzcANPEqOcBc5RUG7oPArRCi1OOnwK/irjJP
iYCEG4STiTfQ5p/R7AiQ2yEZSG57nDaqgSKKTWosw7+DDBT834K6SD9ByhF6IoCJ
SvgvosEr4tUNQYewJfqLXw==
-----END CERTIFICATE-----
